target datalayout = "e-m:e-p270:32:32-p271:32:32-p272:64:64-i64:64-i128:128-f80:128-n8:16:32:64-S128"
target triple = "x86_64-pc-linux-gnu"

%struct.pos = type { [4 x [4 x i16]], [4 x i16], [4 x [4 x i8]], [4 x i32], [50 x [4 x i16]], [50 x i32], [50 x %struct.moveType], i32, i32, [4 x %struct.highCardType], [4 x %struct.highCardType] }
%struct.moveType = type { i32, i32, i32, i32 }
%struct.highCardType = type { i32, i32 }
%struct.ThreadData = type { [4 x i32], i32, i8, [4 x [4 x i16]], i32, %struct.pos, i8, [50 x [4 x i16]], [13 x %struct.WinnersType], [14 x %struct.moveType], [50 x %struct.moveType], [50 x %struct.moveType], double, i32, i32, [8192 x %struct.relRanksType], ptr, %class.Moves }
%struct.WinnersType = type { i32, [4 x %struct.WinnerEntryType] }
%struct.WinnerEntryType = type { i32, i32, i32, i32, i32 }
%struct.relRanksType = type { [15 x [4 x %struct.absRankType]] }
%struct.absRankType = type { i8, i8 }
%class.Moves = type { i32, i32, i32, i32, i32, i32, i32, i32, i32, [13 x %"struct.Moves::trackType"], ptr, [13 x [4 x %struct.movePlyType]], ptr, [13 x [4 x i32]], [13 x %"class.std::__cxx11::basic_string"], [13 x [4 x %"struct.Moves::moveStatType"]], [13 x [4 x %"struct.Moves::moveStatType"]], [13 x [4 x %"struct.Moves::moveStatsType"]], [13 x [4 x %"struct.Moves::moveStatsType"]], %"struct.Moves::moveStatsType", %"struct.Moves::moveStatsType", [16 x { i64, i64 }] }
%"struct.Moves::trackType" = type { i32, i32, [4 x i32], [4 x i32], %struct.trickDataType, [4 x %struct.extCard], [4 x i32], [4 x [4 x i32]], [4 x i32] }
%struct.trickDataType = type { [4 x i32], i32, i32, i32, i32, i32 }
%struct.extCard = type { i32, i32, i32 }
%struct.movePlyType = type { [14 x %struct.moveType], i32, i32 }
%"class.std::__cxx11::basic_string" = type { %"struct.std::__cxx11::basic_string<char>::_Alloc_hider", i64, %union.anon }
%"struct.std::__cxx11::basic_string<char>::_Alloc_hider" = type { ptr }
%union.anon = type { i64, [8 x i8] }
%"struct.Moves::moveStatType" = type { i32, i32, i32, i32 }
%"struct.Moves::moveStatsType" = type { i32, [13 x %"struct.Moves::moveStatType"] }
%struct.evalType = type { i32, [4 x i16] }

; Function Attrs: mustprogress nounwind uwtable
define { i64, i32 } @_Z8EvaluatePK3posiPK10ThreadData(ptr noundef %0, i32 noundef %1, ptr noundef %2) #5 {
  %4 = alloca %struct.evalType, align 4
  %5 = alloca ptr, align 8
  %6 = alloca i32, align 4
  %7 = alloca ptr, align 8
  %8 = alloca i32, align 4
  %9 = alloca i32, align 4
  %10 = alloca i32, align 4
  %11 = alloca i32, align 4
  %12 = alloca i32, align 4
  %13 = alloca i16, align 2
  %14 = alloca i32, align 4
  %15 = alloca { i64, i32 }, align 8
  store ptr %0, ptr %5, align 8
  store i32 %1, ptr %6, align 4
  store ptr %2, ptr %7, align 8
  store i32 0, ptr %10, align 4
  store i32 0, ptr %11, align 4
  store i32 0, ptr %12, align 4
  store i16 0, ptr %13, align 2
  %16 = load ptr, ptr %5, align 8
  %17 = getelementptr inbounds nuw %struct.pos, ptr %16, i32 0, i32 5
  %18 = getelementptr inbounds [50 x i32], ptr %17, i64 0, i64 0
  %19 = load i32, ptr %18, align 4
  store i32 %19, ptr %14, align 4
  store i32 0, ptr %8, align 4
  br label %20

20:                                               ; preds = %28, %3
  %21 = load i32, ptr %8, align 4
  %22 = icmp slt i32 %21, 4
  br i1 %22, label %23, label %31

23:                                               ; preds = %20
  %24 = getelementptr inbounds nuw %struct.evalType, ptr %4, i32 0, i32 1
  %25 = load i32, ptr %8, align 4
  %26 = sext i32 %25 to i64
  %27 = getelementptr inbounds [4 x i16], ptr %24, i64 0, i64 %26
  store i16 0, ptr %27, align 2
  br label %28

28:                                               ; preds = %23
  %29 = load i32, ptr %8, align 4
  %30 = add nsw i32 %29, 1
  store i32 %30, ptr %8, align 4
  br label %20, !llvm.loop !24

31:                                               ; preds = %20
  %32 = load i32, ptr %6, align 4
  %33 = icmp ne i32 %32, 4
  br i1 %33, label %34, label %106

34:                                               ; preds = %31
  store i32 0, ptr %9, align 4
  br label %35

35:                                               ; preds = %79, %34
  %36 = load i32, ptr %9, align 4
  %37 = icmp slt i32 %36, 4
  br i1 %37, label %38, label %82

38:                                               ; preds = %35
  %39 = load ptr, ptr %5, align 8
  %40 = getelementptr inbounds nuw %struct.pos, ptr %39, i32 0, i32 0
  %41 = load i32, ptr %9, align 4
  %42 = sext i32 %41 to i64
  %43 = getelementptr inbounds [4 x [4 x i16]], ptr %40, i64 0, i64 %42
  %44 = load i32, ptr %6, align 4
  %45 = sext i32 %44 to i64
  %46 = getelementptr inbounds [4 x i16], ptr %43, i64 0, i64 %45
  %47 = load i16, ptr %46, align 2
  %48 = zext i16 %47 to i32
  %49 = icmp ne i32 %48, 0
  br i1 %49, label %50, label %53

50:                                               ; preds = %38
  %51 = load i32, ptr %11, align 4
  %52 = add nsw i32 %51, 1
  store i32 %52, ptr %11, align 4
  br label %53

53:                                               ; preds = %50, %38
  %54 = load ptr, ptr %5, align 8
  %55 = getelementptr inbounds nuw %struct.pos, ptr %54, i32 0, i32 0
  %56 = load i32, ptr %9, align 4
  %57 = sext i32 %56 to i64
  %58 = getelementptr inbounds [4 x [4 x i16]], ptr %55, i64 0, i64 %57
  %59 = load i32, ptr %6, align 4
  %60 = sext i32 %59 to i64
  %61 = getelementptr inbounds [4 x i16], ptr %58, i64 0, i64 %60
  %62 = load i16, ptr %61, align 2
  %63 = zext i16 %62 to i32
  %64 = load i16, ptr %13, align 2
  %65 = zext i16 %64 to i32
  %66 = icmp sgt i32 %63, %65
  br i1 %66, label %67, label %78

67:                                               ; preds = %53
  %68 = load i32, ptr %9, align 4
  store i32 %68, ptr %10, align 4
  %69 = load ptr, ptr %5, align 8
  %70 = getelementptr inbounds nuw %struct.pos, ptr %69, i32 0, i32 0
  %71 = load i32, ptr %9, align 4
  %72 = sext i32 %71 to i64
  %73 = getelementptr inbounds [4 x [4 x i16]], ptr %70, i64 0, i64 %72
  %74 = load i32, ptr %6, align 4
  %75 = sext i32 %74 to i64
  %76 = getelementptr inbounds [4 x i16], ptr %73, i64 0, i64 %75
  %77 = load i16, ptr %76, align 2
  store i16 %77, ptr %13, align 2
  br label %78

78:                                               ; preds = %67, %53
  br label %79

79:                                               ; preds = %78
  %80 = load i32, ptr %9, align 4
  %81 = add nsw i32 %80, 1
  store i32 %81, ptr %9, align 4
  br label %35, !llvm.loop !25

82:                                               ; preds = %35
  %83 = load i16, ptr %13, align 2
  %84 = zext i16 %83 to i32
  %85 = icmp sgt i32 %84, 0
  br i1 %85, label %86, label %105

86:                                               ; preds = %82
  %87 = load i32, ptr %11, align 4
  %88 = icmp sge i32 %87, 2
  br i1 %88, label %89, label %95

89:                                               ; preds = %86
  %90 = load i16, ptr %13, align 2
  %91 = getelementptr inbounds nuw %struct.evalType, ptr %4, i32 0, i32 1
  %92 = load i32, ptr %6, align 4
  %93 = sext i32 %92 to i64
  %94 = getelementptr inbounds [4 x i16], ptr %91, i64 0, i64 %93
  store i16 %90, ptr %94, align 2
  br label %95

95:                                               ; preds = %89, %86
  %96 = load ptr, ptr %7, align 8
  %97 = getelementptr inbounds nuw %struct.ThreadData, ptr %96, i32 0, i32 0
  %98 = load i32, ptr %10, align 4
  %99 = sext i32 %98 to i64
  %100 = getelementptr inbounds [4 x i32], ptr %97, i64 0, i64 %99
  %101 = load i32, ptr %100, align 4
  %102 = icmp eq i32 %101, 1
  br i1 %102, label %103, label %104

103:                                              ; preds = %95
  br label %193

104:                                              ; preds = %95
  br label %199

105:                                              ; preds = %82
  br label %106

106:                                              ; preds = %105, %31
  store i32 0, ptr %12, align 4
  br label %107

107:                                              ; preds = %123, %106
  %108 = load i32, ptr %12, align 4
  %109 = icmp sle i32 %108, 3
  br i1 %109, label %110, label %126

110:                                              ; preds = %107
  %111 = load ptr, ptr %5, align 8
  %112 = getelementptr inbounds nuw %struct.pos, ptr %111, i32 0, i32 0
  %113 = load i32, ptr %14, align 4
  %114 = sext i32 %113 to i64
  %115 = getelementptr inbounds [4 x [4 x i16]], ptr %112, i64 0, i64 %114
  %116 = load i32, ptr %12, align 4
  %117 = sext i32 %116 to i64
  %118 = getelementptr inbounds [4 x i16], ptr %115, i64 0, i64 %117
  %119 = load i16, ptr %118, align 2
  %120 = zext i16 %119 to i32
  %121 = icmp ne i32 %120, 0
  br i1 %121, label %122, label %123

122:                                              ; preds = %110
  br label %126

123:                                              ; preds = %110
  %124 = load i32, ptr %12, align 4
  %125 = add nsw i32 %124, 1
  store i32 %125, ptr %12, align 4
  br label %107, !llvm.loop !26

126:                                              ; preds = %122, %107
  store i32 0, ptr %9, align 4
  br label %127

127:                                              ; preds = %171, %126
  %128 = load i32, ptr %9, align 4
  %129 = icmp slt i32 %128, 4
  br i1 %129, label %130, label %174

130:                                              ; preds = %127
  %131 = load ptr, ptr %5, align 8
  %132 = getelementptr inbounds nuw %struct.pos, ptr %131, i32 0, i32 0
  %133 = load i32, ptr %9, align 4
  %134 = sext i32 %133 to i64
  %135 = getelementptr inbounds [4 x [4 x i16]], ptr %132, i64 0, i64 %134
  %136 = load i32, ptr %12, align 4
  %137 = sext i32 %136 to i64
  %138 = getelementptr inbounds [4 x i16], ptr %135, i64 0, i64 %137
  %139 = load i16, ptr %138, align 2
  %140 = zext i16 %139 to i32
  %141 = icmp ne i32 %140, 0
  br i1 %141, label %142, label %145

142:                                              ; preds = %130
  %143 = load i32, ptr %11, align 4
  %144 = add nsw i32 %143, 1
  store i32 %144, ptr %11, align 4
  br label %145

145:                                              ; preds = %142, %130
  %146 = load ptr, ptr %5, align 8
  %147 = getelementptr inbounds nuw %struct.pos, ptr %146, i32 0, i32 0
  %148 = load i32, ptr %9, align 4
  %149 = sext i32 %148 to i64
  %150 = getelementptr inbounds [4 x [4 x i16]], ptr %147, i64 0, i64 %149
  %151 = load i32, ptr %12, align 4
  %152 = sext i32 %151 to i64
  %153 = getelementptr inbounds [4 x i16], ptr %150, i64 0, i64 %152
  %154 = load i16, ptr %153, align 2
  %155 = zext i16 %154 to i32
  %156 = load i16, ptr %13, align 2
  %157 = zext i16 %156 to i32
  %158 = icmp sgt i32 %155, %157
  br i1 %158, label %159, label %170

159:                                              ; preds = %145
  %160 = load i32, ptr %9, align 4
  store i32 %160, ptr %10, align 4
  %161 = load ptr, ptr %5, align 8
  %162 = getelementptr inbounds nuw %struct.pos, ptr %161, i32 0, i32 0
  %163 = load i32, ptr %9, align 4
  %164 = sext i32 %163 to i64
  %165 = getelementptr inbounds [4 x [4 x i16]], ptr %162, i64 0, i64 %164
  %166 = load i32, ptr %12, align 4
  %167 = sext i32 %166 to i64
  %168 = getelementptr inbounds [4 x i16], ptr %165, i64 0, i64 %167
  %169 = load i16, ptr %168, align 2
  store i16 %169, ptr %13, align 2
  br label %170

170:                                              ; preds = %159, %145
  br label %171

171:                                              ; preds = %170
  %172 = load i32, ptr %9, align 4
  %173 = add nsw i32 %172, 1
  store i32 %173, ptr %9, align 4
  br label %127, !llvm.loop !27

174:                                              ; preds = %127
  %175 = load i32, ptr %11, align 4
  %176 = icmp sge i32 %175, 2
  br i1 %176, label %177, label %183

177:                                              ; preds = %174
  %178 = load i16, ptr %13, align 2
  %179 = getelementptr inbounds nuw %struct.evalType, ptr %4, i32 0, i32 1
  %180 = load i32, ptr %12, align 4
  %181 = sext i32 %180 to i64
  %182 = getelementptr inbounds [4 x i16], ptr %179, i64 0, i64 %181
  store i16 %178, ptr %182, align 2
  br label %183

183:                                              ; preds = %177, %174
  %184 = load ptr, ptr %7, align 8
  %185 = getelementptr inbounds nuw %struct.ThreadData, ptr %184, i32 0, i32 0
  %186 = load i32, ptr %10, align 4
  %187 = sext i32 %186 to i64
  %188 = getelementptr inbounds [4 x i32], ptr %185, i64 0, i64 %187
  %189 = load i32, ptr %188, align 4
  %190 = icmp eq i32 %189, 1
  br i1 %190, label %191, label %192

191:                                              ; preds = %183
  br label %193

192:                                              ; preds = %183
  br label %199

193:                                              ; preds = %191, %103
  %194 = load ptr, ptr %5, align 8
  %195 = getelementptr inbounds nuw %struct.pos, ptr %194, i32 0, i32 8
  %196 = load i32, ptr %195, align 4
  %197 = add nsw i32 %196, 1
  %198 = getelementptr inbounds nuw %struct.evalType, ptr %4, i32 0, i32 0
  store i32 %197, ptr %198, align 4
  br label %204

199:                                              ; preds = %192, %104
  %200 = load ptr, ptr %5, align 8
  %201 = getelementptr inbounds nuw %struct.pos, ptr %200, i32 0, i32 8
  %202 = load i32, ptr %201, align 4
  %203 = getelementptr inbounds nuw %struct.evalType, ptr %4, i32 0, i32 0
  store i32 %202, ptr %203, align 4
  br label %204

204:                                              ; preds = %199, %193
  call void @llvm.memcpy.p0.p0.i64(ptr align 8 %15, ptr align 4 %4, i64 12, i1 false)
  %205 = load { i64, i32 }, ptr %15, align 8
  ret { i64, i32 } %205
}