; Function Attrs: mustprogress nofree norecurse nosync nounwind willreturn memory(argmem: read) uwtable
define { i64, i32 } @_Z8EvaluatePK3posiPK10ThreadData(ptr nocapture noundef readonly %0, i32 noundef %1, ptr nocapture noundef readonly %2) local_unnamed_addr #6 {
  %4 = alloca %struct.evalType, align 8
  %5 = getelementptr inbounds nuw i8, ptr %0, i64 472
  %6 = load i32, ptr %5, align 4
  %7 = getelementptr inbounds nuw i8, ptr %4, i64 4
  store i64 0, ptr %7, align 4
  %.not = icmp eq i32 %1, 4
  br i1 %.not, label %25, label %.preheader

.preheader:                                       ; preds = %3
  %8 = sext i32 %1 to i64
  br label %9

9:                                                ; preds = %.preheader, %9
  %indvars.iv = phi i64 [ 0, %.preheader ], [ %indvars.iv.next, %9 ]
  %.15273 = phi i32 [ 0, %.preheader ], [ %.2, %9 ]
  %.15472 = phi i16 [ 0, %.preheader ], [ %.255, %9 ]
  %.16071 = phi i32 [ 0, %.preheader ], [ %spec.select, %9 ]
  %10 = getelementptr inbounds [4 x [4 x i16]], ptr %0, i64 0, i64 %indvars.iv, i64 %8
  %11 = load i16, ptr %10, align 2
  %.not68 = icmp ne i16 %11, 0
  %12 = zext i1 %.not68 to i32
  %spec.select = add nuw nsw i32 %.16071, %12
  %13 = icmp ugt i16 %11, %.15472
  %.255 = tail call i16 @llvm.umax.i16(i16 %11, i16 %.15472)
  %14 = trunc nuw nsw i64 %indvars.iv to i32
  %.2 = select i1 %13, i32 %14, i32 %.15273
  %indvars.iv.next = add nuw nsw i64 %indvars.iv, 1
  %exitcond.not = icmp eq i64 %indvars.iv.next, 4
  br i1 %exitcond.not, label %15, label %9, !llvm.loop !16

15:                                               ; preds = %9
  %.not65 = icmp eq i16 %.255, 0
  br i1 %.not65, label %25, label %16

16:                                               ; preds = %15
  %17 = icmp ugt i32 %spec.select, 1
  br i1 %17, label %18, label %20

18:                                               ; preds = %16
  %19 = getelementptr inbounds [4 x i16], ptr %7, i64 0, i64 %8
  store i16 %.255, ptr %19, align 2
  br label %20

20:                                               ; preds = %18, %16
  %21 = sext i32 %.2 to i64
  %22 = getelementptr inbounds [4 x i32], ptr %2, i64 0, i64 %21
  %23 = load i32, ptr %22, align 4
  %24 = icmp eq i32 %23, 1
  br i1 %24, label %48, label %52

25:                                               ; preds = %15, %3
  %.059 = phi i32 [ %spec.select, %15 ], [ 0, %3 ]
  %.051 = phi i32 [ %.2, %15 ], [ 0, %3 ]
  %26 = sext i32 %6 to i64
  br label %27

27:                                               ; preds = %25, %30
  %indvars.iv81 = phi i64 [ 0, %25 ], [ %indvars.iv.next82, %30 ]
  %28 = getelementptr inbounds [4 x [4 x i16]], ptr %0, i64 0, i64 %26, i64 %indvars.iv81
  %29 = load i16, ptr %28, align 2
  %.not66 = icmp eq i16 %29, 0
  br i1 %.not66, label %30, label %31

30:                                               ; preds = %27
  %indvars.iv.next82 = add nuw nsw i64 %indvars.iv81, 1
  %exitcond84.not = icmp eq i64 %indvars.iv.next82, 4
  br i1 %exitcond84.not, label %31, label %27, !llvm.loop !17

31:                                               ; preds = %27, %30
  %.058.lcssa = phi i64 [ %indvars.iv81, %27 ], [ 4, %30 ]
  %32 = and i64 %.058.lcssa, 4294967295
  br label %33

33:                                               ; preds = %31, %33
  %indvars.iv85 = phi i64 [ 0, %31 ], [ %indvars.iv.next86, %33 ]
  %.378 = phi i32 [ %.051, %31 ], [ %.4, %33 ]
  %.35677 = phi i16 [ 0, %31 ], [ %.457, %33 ]
  %.36276 = phi i32 [ %.059, %31 ], [ %spec.select69, %33 ]
  %34 = getelementptr inbounds [4 x [4 x i16]], ptr %0, i64 0, i64 %indvars.iv85, i64 %32
  %35 = load i16, ptr %34, align 2
  %.not67 = icmp ne i16 %35, 0
  %36 = zext i1 %.not67 to i32
  %spec.select69 = add nsw i32 %.36276, %36
  %37 = icmp ugt i16 %35, %.35677
  %.457 = tail call i16 @llvm.umax.i16(i16 %35, i16 %.35677)
  %38 = trunc nuw nsw i64 %indvars.iv85 to i32
  %.4 = select i1 %37, i32 %38, i32 %.378
  %indvars.iv.next86 = add nuw nsw i64 %indvars.iv85, 1
  %exitcond87.not = icmp eq i64 %indvars.iv.next86, 4
  br i1 %exitcond87.not, label %39, label %33, !llvm.loop !18

39:                                               ; preds = %33
  %40 = icmp sgt i32 %spec.select69, 1
  br i1 %40, label %41, label %43

41:                                               ; preds = %39
  %42 = getelementptr inbounds [4 x i16], ptr %7, i64 0, i64 %32
  store i16 %.457, ptr %42, align 2
  br label %43

43:                                               ; preds = %41, %39
  %44 = sext i32 %.4 to i64
  %45 = getelementptr inbounds [4 x i32], ptr %2, i64 0, i64 %44
  %46 = load i32, ptr %45, align 4
  %47 = icmp eq i32 %46, 1
  br i1 %47, label %48, label %52

48:                                               ; preds = %43, %20
  %49 = getelementptr inbounds nuw i8, ptr %0, i64 1476
  %50 = load i32, ptr %49, align 4
  %51 = add nsw i32 %50, 1
  br label %55

52:                                               ; preds = %43, %20
  %53 = getelementptr inbounds nuw i8, ptr %0, i64 1476
  %54 = load i32, ptr %53, align 4
  br label %55

55:                                               ; preds = %52, %48
  %storemerge = phi i32 [ %54, %52 ], [ %51, %48 ]
  store i32 %storemerge, ptr %4, align 8
  %.sroa.0.0.copyload = load i64, ptr %4, align 8
  %.sroa.2.0..sroa_idx = getelementptr inbounds i8, ptr %4, i64 8
  %.sroa.2.0.copyload = load i32, ptr %.sroa.2.0..sroa_idx, align 8
  %.fca.0.insert = insertvalue { i64, i32 } poison, i64 %.sroa.0.0.copyload, 0
  %.fca.1.insert = insertvalue { i64, i32 } %.fca.0.insert, i32 %.sroa.2.0.copyload, 1
  ret { i64, i32 } %.fca.1.insert
}